target datalayout = "e-m:e-p270:32:32-p271:32:32-p272:64:64-i64:64-i128:128-f80:128-n8:16:32:64-S128"
target triple = "x86_64-pc-linux-gnu"

%"class.absl::lts_20240722::StatusOr" = type { %"class.absl::lts_20240722::internal_statusor::StatusOrData" }
%"class.absl::lts_20240722::internal_statusor::StatusOrData" = type { %union.anon.75, %union.anon.76 }
%union.anon.75 = type { %"class.absl::lts_20240722::Status" }
%"class.absl::lts_20240722::Status" = type { i64 }
%union.anon.76 = type { %"struct.grpc_core::XdsRouting::GeneratePerHttpFilterConfigsResult" }
%"struct.grpc_core::XdsRouting::GeneratePerHttpFilterConfigsResult" = type { %"class.std::map", %"class.grpc_core::ChannelArgs" }
%"class.std::map" = type { %"class.std::_Rb_tree" }
%"class.std::_Rb_tree" = type { %"struct.std::_Rb_tree<std::__cxx11::basic_string<char>, std::pair<const std::__cxx11::basic_string<char>, std::vector<std::__cxx11::basic_string<char>>>, std::_Select1st<std::pair<const std::__cxx11::basic_string<char>, std::vector<std::__cxx11::basic_string<char>>>>, std::less<std::__cxx11::basic_string<char>>>::_Rb_tree_impl" }
%"struct.std::_Rb_tree<std::__cxx11::basic_string<char>, std::pair<const std::__cxx11::basic_string<char>, std::vector<std::__cxx11::basic_string<char>>>, std::_Select1st<std::pair<const std::__cxx11::basic_string<char>, std::vector<std::__cxx11::basic_string<char>>>>, std::less<std::__cxx11::basic_string<char>>>::_Rb_tree_impl" = type { [8 x i8], %"struct.std::_Rb_tree_header" }
%"struct.std::_Rb_tree_header" = type { %"struct.std::_Rb_tree_node_base", i64 }
%"struct.std::_Rb_tree_node_base" = type { i32, ptr, ptr, ptr }
%"class.grpc_core::ChannelArgs" = type { %"class.grpc_core::AVL" }
%"class.grpc_core::AVL" = type { %"class.grpc_core::RefCountedPtr" }
%"class.grpc_core::RefCountedPtr" = type { ptr }
%"class.absl::lts_20240722::FunctionRef" = type { %"union.absl::lts_20240722::functional_internal::VoidPtr", ptr }
%"union.absl::lts_20240722::functional_internal::VoidPtr" = type { ptr }
%class.anon = type { ptr, ptr, ptr }

; Function Attrs: mustprogress nounwind uwtable
define internal void @"_ZN4absl12lts_2024072219functional_internal13AssertNonNullIZN9grpc_core10XdsRouting43GeneratePerHTTPFilterConfigsForMethodConfigERKNS3_21XdsHttpFilterRegistryERKSt6vectorINS3_19XdsListenerResource21HttpConnectionManager10HttpFilterESaISB_EERKNS3_22XdsRouteConfigResource11VirtualHostERKNSG_5RouteEPKNSK_11RouteAction13ClusterWeightERKNS3_11ChannelArgsEE3$_0EEvRKT_"(ptr noundef nonnull align 8 dereferenceable(24) %0) #5 {
  %2 = alloca ptr, align 8
  store ptr %0, ptr %2, align 8, !tbaa !84
  ret void
}

; Function Attrs: mustprogress uwtable
define internal void @"_ZN4absl12lts_2024072211FunctionRefIFNS0_8StatusOrIN9grpc_core17XdsHttpFilterImpl22ServiceConfigJsonEntryEEERKS4_RKNS3_19XdsListenerResource21HttpConnectionManager10HttpFilterEEEC2IZNS3_10XdsRouting43GeneratePerHTTPFilterConfigsForMethodConfigERKNS3_21XdsHttpFilterRegistryERKSt6vectorISB_SaISB_EERKNS3_22XdsRouteConfigResource11VirtualHostERKNSQ_5RouteEPKNSU_11RouteAction13ClusterWeightERKNS3_11ChannelArgsEE3$_0vEERKT_"(ptr noundef nonnull align 8 dereferenceable(16) %0, ptr noundef nonnull align 8 dereferenceable(24) %1) unnamed_addr #4 align 2 {
  %3 = alloca ptr, align 8
  %4 = alloca ptr, align 8
  store ptr %0, ptr %3, align 8, !tbaa !82
  store ptr %1, ptr %4, align 8, !tbaa !84
  %5 = load ptr, ptr %3, align 8
  %6 = getelementptr inbounds nuw %"class.absl::lts_20240722::FunctionRef", ptr %5, i32 0, i32 1
  store ptr @"_ZN4absl12lts_2024072219functional_internal12InvokeObjectIZN9grpc_core10XdsRouting43GeneratePerHTTPFilterConfigsForMethodConfigERKNS3_21XdsHttpFilterRegistryERKSt6vectorINS3_19XdsListenerResource21HttpConnectionManager10HttpFilterESaISB_EERKNS3_22XdsRouteConfigResource11VirtualHostERKNSG_5RouteEPKNSK_11RouteAction13ClusterWeightERKNS3_11ChannelArgsEE3$_0NS0_8StatusOrINS3_17XdsHttpFilterImpl22ServiceConfigJsonEntryEEEJRKSW_RKSB_EEET0_NS1_7VoidPtrEDpNS1_8ForwardTIT1_E4typeE", ptr %6, align 8, !tbaa !85
  %7 = load ptr, ptr %4, align 8, !tbaa !84
  call void @"_ZN4absl12lts_2024072219functional_internal13AssertNonNullIZN9grpc_core10XdsRouting43GeneratePerHTTPFilterConfigsForMethodConfigERKNS3_21XdsHttpFilterRegistryERKSt6vectorINS3_19XdsListenerResource21HttpConnectionManager10HttpFilterESaISB_EERKNS3_22XdsRouteConfigResource11VirtualHostERKNSG_5RouteEPKNSK_11RouteAction13ClusterWeightERKNS3_11ChannelArgsEE3$_0EEvRKT_"(ptr noundef nonnull align 8 dereferenceable(24) %7)
  %8 = load ptr, ptr %4, align 8, !tbaa !84
  %9 = getelementptr inbounds nuw %"class.absl::lts_20240722::FunctionRef", ptr %5, i32 0, i32 0
  store ptr %8, ptr %9, align 8, !tbaa !8
  ret void
}

; Function Attrs: mustprogress uwtable
define void @_ZN9grpc_core10XdsRouting43GeneratePerHTTPFilterConfigsForMethodConfigERKNS_21XdsHttpFilterRegistryERKSt6vectorINS_19XdsListenerResource21HttpConnectionManager10HttpFilterESaIS7_EERKNS_22XdsRouteConfigResource11VirtualHostERKNSC_5RouteEPKNSG_11RouteAction13ClusterWeightERKNS_11ChannelArgsE(ptr dead_on_unwind noalias writable sret(%"class.absl::lts_20240722::StatusOr") align 8 %0, ptr noundef nonnull align 8 dereferenceable(72) %1, ptr noundef nonnull align 8 dereferenceable(24) %2, ptr noundef nonnull align 8 dereferenceable(96) %3, ptr noundef nonnull align 8 dereferenceable(264) %4, ptr noundef %5, ptr noundef nonnull align 8 dereferenceable(8) %6) #4 align 2 {
  %8 = alloca ptr, align 8
  %9 = alloca ptr, align 8
  %10 = alloca ptr, align 8
  %11 = alloca ptr, align 8
  %12 = alloca ptr, align 8
  %13 = alloca ptr, align 8
  %14 = alloca ptr, align 8
  %15 = alloca %"class.absl::lts_20240722::FunctionRef", align 8
  %16 = alloca %class.anon, align 8
  store ptr %0, ptr %8, align 8
  store ptr %1, ptr %9, align 8, !tbaa !61
  store ptr %2, ptr %10, align 8, !tbaa !63
  store ptr %3, ptr %11, align 8, !tbaa !65
  store ptr %4, ptr %12, align 8, !tbaa !67
  store ptr %5, ptr %13, align 8, !tbaa !69
  store ptr %6, ptr %14, align 8, !tbaa !71
  %17 = load ptr, ptr %9, align 8, !tbaa !61
  %18 = load ptr, ptr %10, align 8, !tbaa !63
  %19 = load ptr, ptr %14, align 8, !tbaa !71
  call void @llvm.lifetime.start.p0(i64 24, ptr %16) #3
  %20 = getelementptr inbounds nuw %class.anon, ptr %16, i32 0, i32 0
  %21 = load ptr, ptr %11, align 8, !tbaa !65
  store ptr %21, ptr %20, align 8, !tbaa !65
  %22 = getelementptr inbounds nuw %class.anon, ptr %16, i32 0, i32 1
  %23 = load ptr, ptr %12, align 8, !tbaa !67
  store ptr %23, ptr %22, align 8, !tbaa !67
  %24 = getelementptr inbounds nuw %class.anon, ptr %16, i32 0, i32 2
  store ptr %13, ptr %24, align 8, !tbaa !73
  call void @"_ZN4absl12lts_2024072211FunctionRefIFNS0_8StatusOrIN9grpc_core17XdsHttpFilterImpl22ServiceConfigJsonEntryEEERKS4_RKNS3_19XdsListenerResource21HttpConnectionManager10HttpFilterEEEC2IZNS3_10XdsRouting43GeneratePerHTTPFilterConfigsForMethodConfigERKNS3_21XdsHttpFilterRegistryERKSt6vectorISB_SaISB_EERKNS3_22XdsRouteConfigResource11VirtualHostERKNSQ_5RouteEPKNSU_11RouteAction13ClusterWeightERKNS3_11ChannelArgsEE3$_0vEERKT_"(ptr noundef nonnull align 8 dereferenceable(16) %15, ptr noundef nonnull align 8 dereferenceable(24) %16)
  %25 = getelementptr inbounds nuw { ptr, ptr }, ptr %15, i32 0, i32 0
  %26 = load ptr, ptr %25, align 8
  %27 = getelementptr inbounds nuw { ptr, ptr }, ptr %15, i32 0, i32 1
  %28 = load ptr, ptr %27, align 8
  call void @_ZN9grpc_core12_GLOBAL__N_128GeneratePerHTTPFilterConfigsERKNS_21XdsHttpFilterRegistryERKSt6vectorINS_19XdsListenerResource21HttpConnectionManager10HttpFilterESaIS7_EERKNS_11ChannelArgsEN4absl12lts_2024072211FunctionRefIFNSG_8StatusOrINS_17XdsHttpFilterImpl22ServiceConfigJsonEntryEEERKSJ_RKS7_EEE(ptr dead_on_unwind writable sret(%"class.absl::lts_20240722::StatusOr") align 8 %0, ptr noundef nonnull align 8 dereferenceable(72) %17, ptr noundef nonnull align 8 dereferenceable(24) %18, ptr noundef nonnull align 8 dereferenceable(8) %19, ptr %26, ptr %28)
  call void @llvm.lifetime.end.p0(i64 24, ptr %16) #3
  ret void
}