; Function Attrs: mustprogress uwtable
define void @_ZN9grpc_core10XdsRouting43GeneratePerHTTPFilterConfigsForMethodConfigERKNS_21XdsHttpFilterRegistryERKSt6vectorINS_19XdsListenerResource21HttpConnectionManager10HttpFilterESaIS7_EERKNS_22XdsRouteConfigResource11VirtualHostERKNSC_5RouteEPKNSG_11RouteAction13ClusterWeightERKNS_11ChannelArgsE(ptr dead_on_unwind noalias writable sret(%"class.absl::lts_20240722::StatusOr") align 8 %0, ptr noundef nonnull align 8 dereferenceable(72) %1, ptr noundef nonnull readonly align 8 captures(none) dereferenceable(24) %2, ptr noundef nonnull align 8 dereferenceable(96) %3, ptr noundef nonnull align 8 dereferenceable(264) %4, ptr noundef %5, ptr noundef nonnull align 8 dereferenceable(8) %6) local_unnamed_addr #3 align 2 {
  %8 = alloca ptr, align 8
  %9 = alloca %class.anon, align 8
  store ptr %5, ptr %8, align 8, !tbaa !51
  call void @llvm.lifetime.start.p0(i64 24, ptr nonnull %9) #28
  store ptr %3, ptr %9, align 8, !tbaa !53
  %10 = getelementptr inbounds nuw i8, ptr %9, i64 8
  store ptr %4, ptr %10, align 8, !tbaa !55
  %11 = getelementptr inbounds nuw i8, ptr %9, i64 16
  store ptr %8, ptr %11, align 8, !tbaa !57
  call fastcc void @_ZN9grpc_core12_GLOBAL__N_128GeneratePerHTTPFilterConfigsERKNS_21XdsHttpFilterRegistryERKSt6vectorINS_19XdsListenerResource21HttpConnectionManager10HttpFilterESaIS7_EERKNS_11ChannelArgsEN4absl12lts_2024072211FunctionRefIFNSG_8StatusOrINS_17XdsHttpFilterImpl22ServiceConfigJsonEntryEEERKSJ_RKS7_EEE(ptr dead_on_unwind noalias writable align 8 %0, ptr noundef nonnull align 8 dereferenceable(72) %1, ptr noundef nonnull align 8 dereferenceable(24) %2, ptr noundef nonnull align 8 dereferenceable(8) %6, ptr nonnull %9, ptr nonnull @"_ZN4absl12lts_2024072219functional_internal12InvokeObjectIZN9grpc_core10XdsRouting43GeneratePerHTTPFilterConfigsForMethodConfigERKNS3_21XdsHttpFilterRegistryERKSt6vectorINS3_19XdsListenerResource21HttpConnectionManager10HttpFilterESaISB_EERKNS3_22XdsRouteConfigResource11VirtualHostERKNSG_5RouteEPKNSK_11RouteAction13ClusterWeightERKNS3_11ChannelArgsEE3$_0NS0_8StatusOrINS3_17XdsHttpFilterImpl22ServiceConfigJsonEntryEEEJRKSW_RKSB_EEET0_NS1_7VoidPtrEDpNS1_8ForwardTIT1_E4typeE")
  call void @llvm.lifetime.end.p0(i64 24, ptr nonnull %9) #28
  ret void
}